; Function Attrs: mustprogress uwtable
define internal void @_ZN11opencv_testL48gtest_Accumulate_SquareDoubleMask_EvalGenerator_Ev(ptr dead_on_unwind noalias writable sret(%"class.testing::internal::ParamGenerator") align 8 %0) #4 {
  %2 = alloca %"class.testing::internal::CartesianProductHolder2.237", align 8
  call void @llvm.lifetime.start.p0(i64 72, ptr nonnull %2) #29
  %.sroa.04.0.copyload = load i64, ptr @_ZN4perfL7sz1080pE, align 8
  %.sroa.03.0.copyload = load i64, ptr @_ZN4perfL6sz720pE, align 8
  %.sroa.02.0.copyload = load i64, ptr @_ZN4perfL5szVGAE, align 8
  %.sroa.01.0.copyload = load i64, ptr @_ZN4perfL6szQVGAE, align 8
  %.sroa.0.0.copyload = load i64, ptr @_ZN4perfL5szODDE, align 8
  store i64 %.sroa.04.0.copyload, ptr %2, align 8, !alias.scope !225
  %3 = getelementptr inbounds nuw i8, ptr %2, i64 8
  store i64 %.sroa.03.0.copyload, ptr %3, align 8, !alias.scope !225
  %4 = getelementptr inbounds nuw i8, ptr %2, i64 16
  store i64 %.sroa.02.0.copyload, ptr %4, align 8, !alias.scope !225
  %5 = getelementptr inbounds nuw i8, ptr %2, i64 24
  store i64 %.sroa.01.0.copyload, ptr %5, align 8, !alias.scope !225
  %6 = getelementptr inbounds nuw i8, ptr %2, i64 32
  store i64 %.sroa.0.0.copyload, ptr %6, align 8, !alias.scope !225
  %7 = getelementptr inbounds nuw i8, ptr %2, i64 40
  store i32 0, ptr %7, align 8, !tbaa !151, !alias.scope !225
  %8 = getelementptr inbounds nuw i8, ptr %2, i64 44
  store i32 2, ptr %8, align 4, !tbaa !153, !alias.scope !225
  %9 = getelementptr inbounds nuw i8, ptr %2, i64 48
  store i32 5, ptr %9, align 8, !tbaa !154, !alias.scope !225
  %10 = getelementptr inbounds nuw i8, ptr %2, i64 52
  store i32 16, ptr %10, align 4, !tbaa !155, !alias.scope !225
  %11 = getelementptr inbounds nuw i8, ptr %2, i64 56
  store i32 18, ptr %11, align 8, !tbaa !156, !alias.scope !225
  %12 = getelementptr inbounds nuw i8, ptr %2, i64 60
  store i32 21, ptr %12, align 4, !tbaa !157, !alias.scope !225
  %13 = getelementptr inbounds nuw i8, ptr %2, i64 64
  store i32 6, ptr %13, align 8, !tbaa !158, !alias.scope !225
  %14 = getelementptr inbounds nuw i8, ptr %2, i64 68
  store i32 6, ptr %14, align 4, !tbaa !159, !alias.scope !225
  call void @_ZNK7testing8internal23CartesianProductHolder2INS0_11ValueArray5IN2cv5Size_IiEES5_S5_S5_S5_EENS0_11ValueArray8IiiiiiiiiEEEcvNS0_14ParamGeneratorISt5tupleIJT_T0_EEEEIS5_N4perf7MatTypeEEEv(ptr dead_on_unwind writable sret(%"class.testing::internal::ParamGenerator") align 8 %0, ptr noundef nonnull align 4 dereferenceable(72) %2)
  call void @llvm.lifetime.end.p0(i64 72, ptr nonnull %2) #29
  ret void
}